; Function Attrs: mustprogress nounwind uwtable
define internal fastcc void @_ZNSt6vectorIN3ue212_GLOBAL__N_19SomRevNfaESaIS2_EED2Ev(ptr noundef nonnull readonly align 8 captures(none) dereferenceable(24) %0) unnamed_addr #8 align 2 personality ptr @__gxx_personality_v0 {
  %2 = load ptr, ptr %0, align 8
  %3 = getelementptr inbounds nuw i8, ptr %0, i64 8
  %4 = load ptr, ptr %3, align 8
  %.not4.i.i.i = icmp eq ptr %2, %4
  br i1 %.not4.i.i.i, label %_ZSt8_DestroyIPN3ue212_GLOBAL__N_19SomRevNfaES2_EvT_S4_RSaIT0_E.exit, label %.lr.ph.i.i.i

.lr.ph.i.i.i:                                     ; preds = %1, %_ZSt8_DestroyIN3ue212_GLOBAL__N_19SomRevNfaEEvPT_.exit.i.i.i
  %.05.i.i.i = phi ptr [ %11, %_ZSt8_DestroyIN3ue212_GLOBAL__N_19SomRevNfaEEvPT_.exit.i.i.i ], [ %2, %1 ]
  %5 = getelementptr inbounds nuw i8, ptr %.05.i.i.i, i64 24
  %6 = load ptr, ptr %5, align 8
  %.not.i.i.i.i.i.i.i = icmp eq ptr %6, null
  br i1 %.not.i.i.i.i.i.i.i, label %_ZSt8_DestroyIN3ue212_GLOBAL__N_19SomRevNfaEEvPT_.exit.i.i.i, label %7

7:                                                ; preds = %.lr.ph.i.i.i
  invoke void @_ZN3ue221aligned_free_internalEPv(ptr noundef nonnull %6)
          to label %_ZSt8_DestroyIN3ue212_GLOBAL__N_19SomRevNfaEEvPT_.exit.i.i.i unwind label %8

8:                                                ; preds = %7
  %9 = landingpad { ptr, i32 }
          catch ptr null
  %10 = extractvalue { ptr, i32 } %9, 0
  tail call void @__clang_call_terminate(ptr %10) #30
  unreachable

_ZSt8_DestroyIN3ue212_GLOBAL__N_19SomRevNfaEEvPT_.exit.i.i.i: ; preds = %7, %.lr.ph.i.i.i
  store ptr null, ptr %5, align 8
  %11 = getelementptr inbounds nuw i8, ptr %.05.i.i.i, i64 48
  %.not.i.i.i = icmp eq ptr %11, %4
  br i1 %.not.i.i.i, label %_ZSt8_DestroyIPN3ue212_GLOBAL__N_19SomRevNfaES2_EvT_S4_RSaIT0_E.exitthread-pre-split, label %.lr.ph.i.i.i, !llvm.loop !206

_ZSt8_DestroyIPN3ue212_GLOBAL__N_19SomRevNfaES2_EvT_S4_RSaIT0_E.exitthread-pre-split: ; preds = %_ZSt8_DestroyIN3ue212_GLOBAL__N_19SomRevNfaEEvPT_.exit.i.i.i
  %.val.pr = load ptr, ptr %0, align 8
  br label %_ZSt8_DestroyIPN3ue212_GLOBAL__N_19SomRevNfaES2_EvT_S4_RSaIT0_E.exit

_ZSt8_DestroyIPN3ue212_GLOBAL__N_19SomRevNfaES2_EvT_S4_RSaIT0_E.exit: ; preds = %_ZSt8_DestroyIPN3ue212_GLOBAL__N_19SomRevNfaES2_EvT_S4_RSaIT0_E.exitthread-pre-split, %1
  %.val = phi ptr [ %.val.pr, %_ZSt8_DestroyIPN3ue212_GLOBAL__N_19SomRevNfaES2_EvT_S4_RSaIT0_E.exitthread-pre-split ], [ %2, %1 ]
  %.not.i.i = icmp eq ptr %.val, null
  br i1 %.not.i.i, label %_ZNSt12_Vector_baseIN3ue212_GLOBAL__N_19SomRevNfaESaIS2_EED2Ev.exit, label %12

12:                                               ; preds = %_ZSt8_DestroyIPN3ue212_GLOBAL__N_19SomRevNfaES2_EvT_S4_RSaIT0_E.exit
  tail call void @_ZdlPv(ptr noundef nonnull %.val) #28
  br label %_ZNSt12_Vector_baseIN3ue212_GLOBAL__N_19SomRevNfaESaIS2_EED2Ev.exit

_ZNSt12_Vector_baseIN3ue212_GLOBAL__N_19SomRevNfaESaIS2_EED2Ev.exit: ; preds = %_ZSt8_DestroyIPN3ue212_GLOBAL__N_19SomRevNfaES2_EvT_S4_RSaIT0_E.exit, %12
  ret void
}